target datalayout = "e-m:e-p270:32:32-p271:32:32-p272:64:64-i64:64-i128:128-f80:128-n8:16:32:64-S128"
target triple = "x86_64-pc-linux-gnu"

%struct.avifDecoder = type { i32, i32, i32, i32, i32, i32, i32, i32, i32, i32, i32, ptr, i32, i32, i32, %struct.avifImageTiming, i64, double, i64, i32, i32, %struct.avifIOStats, %struct.avifDiagnostics, ptr, ptr, i32 }
%struct.avifImageTiming = type { i64, double, i64, double, i64 }
%struct.avifIOStats = type { i64, i64 }
%struct.avifDiagnostics = type { [256 x i8] }
%struct.avifDecoderData = type { ptr, %struct.avifTrackArray, %struct.avifTileArray, [2 x %struct.avifTileInfo], i32, ptr, ptr, [4 x i8], ptr, ptr, i32 }
%struct.avifTrackArray = type { ptr, i32, i32, i32 }
%struct.avifTileArray = type { ptr, i32, i32, i32 }
%struct.avifTileInfo = type { i32, i32, i32, %struct.avifImageGrid }
%struct.avifImageGrid = type { i32, i32, i32, i32 }
%struct.avifTile = type { ptr, i32, ptr, ptr, i32, i32, i8 }
%struct.avifImage = type { i32, i32, i32, i32, i32, i32, [3 x ptr], [3 x i32], i32, ptr, i32, i32, i32, %struct.avifRWData, i16, i16, i16, %struct.avifContentLightLevelInformationBox, i32, %struct.avifPixelAspectRatioBox, %struct.avifCleanApertureBox, %struct.avifImageRotation, %struct.avifImageMirror, %struct.avifRWData, %struct.avifRWData }
%struct.avifContentLightLevelInformationBox = type { i16, i16 }
%struct.avifPixelAspectRatioBox = type { i32, i32 }
%struct.avifCleanApertureBox = type { i32, i32, i32, i32, i32, i32, i32, i32 }
%struct.avifImageRotation = type { i8 }
%struct.avifImageMirror = type { i8 }
%struct.avifRWData = type { ptr, i64 }

; Function Attrs: nounwind uwtable
define internal i32 @avifGetDecodedRowCount(ptr noundef %0, ptr noundef %1, ptr noundef %2) #0 {
  %4 = alloca i32, align 4
  %5 = alloca ptr, align 8
  %6 = alloca ptr, align 8
  %7 = alloca ptr, align 8
  %8 = alloca i32, align 4
  store ptr %0, ptr %5, align 8
  store ptr %1, ptr %6, align 8
  store ptr %2, ptr %7, align 8
  %9 = load ptr, ptr %6, align 8
  %10 = getelementptr inbounds nuw %struct.avifTileInfo, ptr %9, i32 0, i32 1
  %11 = load i32, ptr %10, align 4
  %12 = load ptr, ptr %6, align 8
  %13 = getelementptr inbounds nuw %struct.avifTileInfo, ptr %12, i32 0, i32 0
  %14 = load i32, ptr %13, align 4
  %15 = icmp eq i32 %11, %14
  br i1 %15, label %16, label %20

16:                                               ; preds = %3
  %17 = load ptr, ptr %7, align 8
  %18 = getelementptr inbounds nuw %struct.avifImage, ptr %17, i32 0, i32 1
  %19 = load i32, ptr %18, align 4
  store i32 %19, ptr %4, align 4
  br label %87

20:                                               ; preds = %3
  %21 = load ptr, ptr %6, align 8
  %22 = getelementptr inbounds nuw %struct.avifTileInfo, ptr %21, i32 0, i32 1
  %23 = load i32, ptr %22, align 4
  %24 = icmp eq i32 %23, 0
  br i1 %24, label %25, label %26

25:                                               ; preds = %20
  store i32 0, ptr %4, align 4
  br label %87

26:                                               ; preds = %20
  %27 = load ptr, ptr %6, align 8
  %28 = getelementptr inbounds nuw %struct.avifTileInfo, ptr %27, i32 0, i32 3
  %29 = getelementptr inbounds nuw %struct.avifImageGrid, ptr %28, i32 0, i32 0
  %30 = load i32, ptr %29, align 4
  %31 = icmp ugt i32 %30, 0
  br i1 %31, label %32, label %83

32:                                               ; preds = %26
  %33 = load ptr, ptr %6, align 8
  %34 = getelementptr inbounds nuw %struct.avifTileInfo, ptr %33, i32 0, i32 3
  %35 = getelementptr inbounds nuw %struct.avifImageGrid, ptr %34, i32 0, i32 1
  %36 = load i32, ptr %35, align 4
  %37 = icmp ugt i32 %36, 0
  br i1 %37, label %38, label %83

38:                                               ; preds = %32
  %39 = load ptr, ptr %5, align 8
  %40 = getelementptr inbounds nuw %struct.avifDecoder, ptr %39, i32 0, i32 24
  %41 = load ptr, ptr %40, align 8
  %42 = getelementptr inbounds nuw %struct.avifDecoderData, ptr %41, i32 0, i32 2
  %43 = getelementptr inbounds nuw %struct.avifTileArray, ptr %42, i32 0, i32 0
  %44 = load ptr, ptr %43, align 8
  %45 = load ptr, ptr %6, align 8
  %46 = getelementptr inbounds nuw %struct.avifTileInfo, ptr %45, i32 0, i32 2
  %47 = load i32, ptr %46, align 4
  %48 = zext i32 %47 to i64
  %49 = getelementptr inbounds %struct.avifTile, ptr %44, i64 %48
  %50 = getelementptr inbounds nuw %struct.avifTile, ptr %49, i32 0, i32 5
  %51 = load i32, ptr %50, align 4
  store i32 %51, ptr %8, align 4
  %52 = load ptr, ptr %6, align 8
  %53 = getelementptr inbounds nuw %struct.avifTileInfo, ptr %52, i32 0, i32 1
  %54 = load i32, ptr %53, align 4
  %55 = load ptr, ptr %6, align 8
  %56 = getelementptr inbounds nuw %struct.avifTileInfo, ptr %55, i32 0, i32 3
  %57 = getelementptr inbounds nuw %struct.avifImageGrid, ptr %56, i32 0, i32 1
  %58 = load i32, ptr %57, align 4
  %59 = udiv i32 %54, %58
  %60 = load i32, ptr %8, align 4
  %61 = mul i32 %59, %60
  %62 = load ptr, ptr %7, align 8
  %63 = getelementptr inbounds nuw %struct.avifImage, ptr %62, i32 0, i32 1
  %64 = load i32, ptr %63, align 4
  %65 = icmp ult i32 %61, %64
  br i1 %65, label %66, label %77

66:                                               ; preds = %38
  %67 = load ptr, ptr %6, align 8
  %68 = getelementptr inbounds nuw %struct.avifTileInfo, ptr %67, i32 0, i32 1
  %69 = load i32, ptr %68, align 4
  %70 = load ptr, ptr %6, align 8
  %71 = getelementptr inbounds nuw %struct.avifTileInfo, ptr %70, i32 0, i32 3
  %72 = getelementptr inbounds nuw %struct.avifImageGrid, ptr %71, i32 0, i32 1
  %73 = load i32, ptr %72, align 4
  %74 = udiv i32 %69, %73
  %75 = load i32, ptr %8, align 4
  %76 = mul i32 %74, %75
  br label %81

77:                                               ; preds = %38
  %78 = load ptr, ptr %7, align 8
  %79 = getelementptr inbounds nuw %struct.avifImage, ptr %78, i32 0, i32 1
  %80 = load i32, ptr %79, align 4
  br label %81

81:                                               ; preds = %77, %66
  %82 = phi i32 [ %76, %66 ], [ %80, %77 ]
  store i32 %82, ptr %4, align 4
  br label %87

83:                                               ; preds = %32, %26
  %84 = load ptr, ptr %7, align 8
  %85 = getelementptr inbounds nuw %struct.avifImage, ptr %84, i32 0, i32 1
  %86 = load i32, ptr %85, align 4
  store i32 %86, ptr %4, align 4
  br label %87

87:                                               ; preds = %83, %81, %25, %16
  %88 = load i32, ptr %4, align 4
  ret i32 %88
}

; Function Attrs: nounwind uwtable
define hidden i32 @avifDecoderDecodedRowCount(ptr noundef %0) #0 {
  %2 = alloca ptr, align 8
  %3 = alloca i32, align 4
  %4 = alloca i32, align 4
  %5 = alloca i32, align 4
  store ptr %0, ptr %2, align 8
  %6 = load ptr, ptr %2, align 8
  %7 = getelementptr inbounds nuw %struct.avifDecoder, ptr %6, i32 0, i32 11
  %8 = load ptr, ptr %7, align 8
  %9 = getelementptr inbounds nuw %struct.avifImage, ptr %8, i32 0, i32 1
  %10 = load i32, ptr %9, align 4
  store i32 %10, ptr %3, align 4
  store i32 0, ptr %4, align 4
  br label %11

11:                                               ; preds = %36, %1
  %12 = load i32, ptr %4, align 4
  %13 = icmp slt i32 %12, 2
  br i1 %13, label %14, label %39

14:                                               ; preds = %11
  %15 = load ptr, ptr %2, align 8
  %16 = load ptr, ptr %2, align 8
  %17 = getelementptr inbounds nuw %struct.avifDecoder, ptr %16, i32 0, i32 24
  %18 = load ptr, ptr %17, align 8
  %19 = getelementptr inbounds nuw %struct.avifDecoderData, ptr %18, i32 0, i32 3
  %20 = load i32, ptr %4, align 4
  %21 = sext i32 %20 to i64
  %22 = getelementptr inbounds [2 x %struct.avifTileInfo], ptr %19, i64 0, i64 %21
  %23 = load ptr, ptr %2, align 8
  %24 = getelementptr inbounds nuw %struct.avifDecoder, ptr %23, i32 0, i32 11
  %25 = load ptr, ptr %24, align 8
  %26 = call i32 @avifGetDecodedRowCount(ptr noundef %15, ptr noundef %22, ptr noundef %25)
  store i32 %26, ptr %5, align 4
  %27 = load i32, ptr %3, align 4
  %28 = load i32, ptr %5, align 4
  %29 = icmp ult i32 %27, %28
  br i1 %29, label %30, label %32

30:                                               ; preds = %14
  %31 = load i32, ptr %3, align 4
  br label %34

32:                                               ; preds = %14
  %33 = load i32, ptr %5, align 4
  br label %34

34:                                               ; preds = %32, %30
  %35 = phi i32 [ %31, %30 ], [ %33, %32 ]
  store i32 %35, ptr %3, align 4
  br label %36

36:                                               ; preds = %34
  %37 = load i32, ptr %4, align 4
  %38 = add nsw i32 %37, 1
  store i32 %38, ptr %4, align 4
  br label %11, !llvm.loop !54

39:                                               ; preds = %11
  %40 = load i32, ptr %3, align 4
  ret i32 %40
}