; Function Attrs: nofree norecurse nosync nounwind memory(read, inaccessiblemem: none) uwtable
define hidden i32 @avifDecoderDecodedRowCount(ptr noundef readonly captures(none) %0) local_unnamed_addr #4 {
  %2 = getelementptr inbounds nuw i8, ptr %0, i64 48
  %3 = load ptr, ptr %2, align 8
  %4 = getelementptr inbounds nuw i8, ptr %3, i64 4
  %5 = load i32, ptr %4, align 4
  %6 = getelementptr inbounds nuw i8, ptr %0, i64 424
  %7 = load ptr, ptr %6, align 8
  %8 = getelementptr inbounds nuw i8, ptr %7, i64 56
  %9 = getelementptr inbounds nuw i8, ptr %7, i64 32
  br label %10

10:                                               ; preds = %1, %avifGetDecodedRowCount.exit
  %11 = phi i1 [ true, %1 ], [ false, %avifGetDecodedRowCount.exit ]
  %indvars.iv = phi i64 [ 0, %1 ], [ 1, %avifGetDecodedRowCount.exit ]
  %.013 = phi i32 [ %5, %1 ], [ %34, %avifGetDecodedRowCount.exit ]
  %12 = getelementptr inbounds nuw [2 x %struct.avifTileInfo], ptr %8, i64 0, i64 %indvars.iv
  %13 = getelementptr inbounds nuw i8, ptr %12, i64 4
  %14 = load i32, ptr %13, align 4
  %15 = load i32, ptr %12, align 4
  %16 = icmp eq i32 %14, %15
  br i1 %16, label %avifGetDecodedRowCount.exit, label %17

17:                                               ; preds = %10
  %18 = icmp eq i32 %14, 0
  br i1 %18, label %avifGetDecodedRowCount.exit, label %19

19:                                               ; preds = %17
  %20 = getelementptr inbounds nuw i8, ptr %12, i64 12
  %21 = load i32, ptr %20, align 4
  %.not.i = icmp eq i32 %21, 0
  br i1 %.not.i, label %avifGetDecodedRowCount.exit, label %22

22:                                               ; preds = %19
  %23 = getelementptr inbounds nuw i8, ptr %12, i64 16
  %24 = load i32, ptr %23, align 4
  %.not21.i = icmp eq i32 %24, 0
  br i1 %.not21.i, label %avifGetDecodedRowCount.exit, label %25

25:                                               ; preds = %22
  %26 = load ptr, ptr %9, align 8
  %27 = getelementptr inbounds nuw i8, ptr %12, i64 8
  %28 = load i32, ptr %27, align 4
  %29 = zext i32 %28 to i64
  %30 = getelementptr inbounds nuw %struct.avifTile, ptr %26, i64 %29, i32 5
  %31 = load i32, ptr %30, align 4
  %32 = udiv i32 %14, %24
  %33 = mul i32 %32, %31
  %..i = tail call i32 @llvm.umin.i32(i32 %33, i32 %5)
  br label %avifGetDecodedRowCount.exit

avifGetDecodedRowCount.exit:                      ; preds = %19, %22, %10, %17, %25
  %.0.i = phi i32 [ %..i, %25 ], [ 0, %17 ], [ %5, %10 ], [ %5, %22 ], [ %5, %19 ]
  %34 = tail call i32 @llvm.umin.i32(i32 %.013, i32 %.0.i)
  br i1 %11, label %10, label %35, !llvm.loop !70

35:                                               ; preds = %avifGetDecodedRowCount.exit
  ret i32 %34
}